target datalayout = "e-m:e-p270:32:32-p271:32:32-p272:64:64-i64:64-i128:128-f80:128-n8:16:32:64-S128"
target triple = "x86_64-pc-linux-gnu"

%struct.bio_st = type { ptr, ptr, ptr, ptr, ptr, i32, i32, i32, i32, i32, ptr, ptr, ptr, %struct.CRYPTO_REF_COUNT, i64, i64, %struct.crypto_ex_data_st }
%struct.CRYPTO_REF_COUNT = type { i32 }
%struct.crypto_ex_data_st = type { ptr, ptr }
%struct.bio_dgram_pair_st = type { ptr, %struct.ring_buf, i64, i64, i32, ptr, ptr, i8 }
%struct.ring_buf = type { ptr, i64, i64, [2 x i64] }

@.str.2 = private unnamed_addr constant [39 x i8] c"../openssl/crypto/bio/bss_dgram_pair.c\00", align 1

; Function Attrs: nounwind uwtable
define internal i32 @dgram_pair_init(ptr noundef %0) #0 {
  %2 = alloca i32, align 4
  %3 = alloca ptr, align 8
  %4 = alloca ptr, align 8
  %5 = alloca i32, align 4
  store ptr %0, ptr %3, align 8, !tbaa !12
  call void @llvm.lifetime.start.p0(i64 8, ptr %4) #8
  %6 = call noalias ptr @CRYPTO_zalloc(i64 noundef 96, ptr noundef @.str.2, i32 noundef 279)
  store ptr %6, ptr %4, align 8, !tbaa !23
  %7 = load ptr, ptr %4, align 8, !tbaa !23
  %8 = icmp eq ptr %7, null
  br i1 %8, label %9, label %10

9:                                                ; preds = %1
  store i32 0, ptr %2, align 4
  store i32 1, ptr %5, align 4
  br label %33

10:                                               ; preds = %1
  %11 = load ptr, ptr %4, align 8, !tbaa !23
  %12 = getelementptr inbounds nuw %struct.bio_dgram_pair_st, ptr %11, i32 0, i32 3
  store i64 1472, ptr %12, align 8, !tbaa !31
  %13 = load ptr, ptr %4, align 8, !tbaa !23
  %14 = getelementptr inbounds nuw %struct.bio_dgram_pair_st, ptr %13, i32 0, i32 3
  %15 = load i64, ptr %14, align 8, !tbaa !31
  %16 = add i64 232, %15
  %17 = mul i64 9, %16
  %18 = load ptr, ptr %4, align 8, !tbaa !23
  %19 = getelementptr inbounds nuw %struct.bio_dgram_pair_st, ptr %18, i32 0, i32 2
  store i64 %17, ptr %19, align 8, !tbaa !32
  %20 = call ptr @CRYPTO_THREAD_lock_new()
  %21 = load ptr, ptr %4, align 8, !tbaa !23
  %22 = getelementptr inbounds nuw %struct.bio_dgram_pair_st, ptr %21, i32 0, i32 6
  store ptr %20, ptr %22, align 8, !tbaa !25
  %23 = load ptr, ptr %4, align 8, !tbaa !23
  %24 = getelementptr inbounds nuw %struct.bio_dgram_pair_st, ptr %23, i32 0, i32 6
  %25 = load ptr, ptr %24, align 8, !tbaa !25
  %26 = icmp eq ptr %25, null
  br i1 %26, label %27, label %29

27:                                               ; preds = %10
  %28 = load ptr, ptr %4, align 8, !tbaa !23
  call void @CRYPTO_free(ptr noundef %28, ptr noundef @.str.2, i32 noundef 290)
  store i32 0, ptr %2, align 4
  store i32 1, ptr %5, align 4
  br label %33

29:                                               ; preds = %10
  %30 = load ptr, ptr %4, align 8, !tbaa !23
  %31 = load ptr, ptr %3, align 8, !tbaa !12
  %32 = getelementptr inbounds nuw %struct.bio_st, ptr %31, i32 0, i32 10
  store ptr %30, ptr %32, align 8, !tbaa !16
  store i32 1, ptr %2, align 4
  store i32 1, ptr %5, align 4
  br label %33

33:                                               ; preds = %29, %27, %9
  call void @llvm.lifetime.end.p0(i64 8, ptr %4) #8
  %34 = load i32, ptr %2, align 4
  ret i32 %34
}