; Function Attrs: nounwind uwtable
define internal range(i32 0, 2) i32 @dgram_pair_init(ptr noundef writeonly captures(none) %0) #1 {
  %2 = tail call noalias ptr @CRYPTO_zalloc(i64 noundef 96, ptr noundef nonnull @.str.2, i32 noundef 279) #7
  %3 = icmp eq ptr %2, null
  br i1 %3, label %13, label %4

4:                                                ; preds = %1
  %5 = getelementptr inbounds nuw i8, ptr %2, i64 56
  store i64 1472, ptr %5, align 8, !tbaa !33
  %6 = getelementptr inbounds nuw i8, ptr %2, i64 48
  store i64 15336, ptr %6, align 8, !tbaa !26
  %7 = tail call ptr @CRYPTO_THREAD_lock_new() #7
  %8 = getelementptr inbounds nuw i8, ptr %2, i64 80
  store ptr %7, ptr %8, align 8, !tbaa !18
  %9 = icmp eq ptr %7, null
  br i1 %9, label %10, label %11

10:                                               ; preds = %4
  tail call void @CRYPTO_free(ptr noundef nonnull %2, ptr noundef nonnull @.str.2, i32 noundef 290) #7
  br label %13

11:                                               ; preds = %4
  %12 = getelementptr inbounds nuw i8, ptr %0, i64 64
  store ptr %2, ptr %12, align 8, !tbaa !8
  br label %13

13:                                               ; preds = %1, %11, %10
  %.0 = phi i32 [ 0, %10 ], [ 1, %11 ], [ 0, %1 ]
  ret i32 %.0
}